target datalayout = "e-m:e-p270:32:32-p271:32:32-p272:64:64-i64:64-i128:128-f80:128-n8:16:32:64-S128"
target triple = "x86_64-pc-linux-gnu"

%struct.COMPLEX = type { double, double }
%struct.PJconsts = type { ptr, ptr, ptr, ptr, ptr, ptr, ptr, ptr, ptr, ptr, ptr, ptr, i32, ptr, ptr, ptr, ptr, ptr, ptr, ptr, ptr, double, double, double, double, double, double, double, double, double, double, double, double, double, double, double, double, double, double, double, double, double, double, i32, i32, i32, i32, i32, i32, i32, i32, i32, i32, i32, ptr, ptr, ptr, ptr, ptr, ptr, double, double, double, double, double, double, double, double, double, double, double, i32, [7 x double], i32, ptr, ptr, double, double, i32, [4 x i8], %"class.std::shared_ptr", i8, double, i8, %"class.std::__cxx11::basic_string", %"class.std::__cxx11::basic_string", %"class.std::__cxx11::basic_string", i8, %"class.std::vector", i32, %"class.std::vector.3", i32, i8, i8, i8, ptr }
%"class.std::shared_ptr" = type { %"class.std::__shared_ptr" }
%"class.std::__shared_ptr" = type { ptr, %"class.std::__shared_count" }
%"class.std::__shared_count" = type { ptr }
%"class.std::__cxx11::basic_string" = type { %"struct.std::__cxx11::basic_string<char>::_Alloc_hider", i64, %union.anon }
%"struct.std::__cxx11::basic_string<char>::_Alloc_hider" = type { ptr }
%union.anon = type { i64, [8 x i8] }
%"class.std::vector" = type { %"struct.std::_Vector_base" }
%"struct.std::_Vector_base" = type { %"struct.std::_Vector_base<osgeo::proj::operation::GridDescription, std::allocator<osgeo::proj::operation::GridDescription>>::_Vector_impl" }
%"struct.std::_Vector_base<osgeo::proj::operation::GridDescription, std::allocator<osgeo::proj::operation::GridDescription>>::_Vector_impl" = type { %"struct.std::_Vector_base<osgeo::proj::operation::GridDescription, std::allocator<osgeo::proj::operation::GridDescription>>::_Vector_impl_data" }
%"struct.std::_Vector_base<osgeo::proj::operation::GridDescription, std::allocator<osgeo::proj::operation::GridDescription>>::_Vector_impl_data" = type { ptr, ptr, ptr }
%"class.std::vector.3" = type { %"struct.std::_Vector_base.4" }
%"struct.std::_Vector_base.4" = type { %"struct.std::_Vector_base<PJCoordOperation, std::allocator<PJCoordOperation>>::_Vector_impl" }
%"struct.std::_Vector_base<PJCoordOperation, std::allocator<PJCoordOperation>>::_Vector_impl" = type { %"struct.std::_Vector_base<PJCoordOperation, std::allocator<PJCoordOperation>>::_Vector_impl_data" }
%"struct.std::_Vector_base<PJCoordOperation, std::allocator<PJCoordOperation>>::_Vector_impl_data" = type { ptr, ptr, ptr }
%struct.PJ_LP = type { double, double }
%struct.PJ_XY = type { double, double }

; Function Attrs: mustprogress uwtable
define internal { double, double } @_ZL14nzmg_e_forward5PJ_LPP8PJconsts(double %0, double %1, ptr noundef %2) #0 {
  %4 = alloca %struct.PJ_XY, align 8
  %5 = alloca %struct.PJ_LP, align 8
  %6 = alloca ptr, align 8
  %7 = alloca %struct.COMPLEX, align 8
  %8 = alloca ptr, align 8
  %9 = alloca i32, align 4
  %10 = alloca %struct.COMPLEX, align 8
  %11 = alloca %struct.COMPLEX, align 8
  %12 = getelementptr inbounds nuw { double, double }, ptr %5, i32 0, i32 0
  store double %0, ptr %12, align 8
  %13 = getelementptr inbounds nuw { double, double }, ptr %5, i32 0, i32 1
  store double %1, ptr %13, align 8
  store ptr %2, ptr %6, align 8, !tbaa !3
  call void @llvm.memset.p0.i64(ptr align 8 %4, i8 0, i64 16, i1 false)
  call void @llvm.lifetime.start.p0(i64 16, ptr %7) #7
  call void @llvm.lifetime.start.p0(i64 8, ptr %8) #7
  call void @llvm.lifetime.start.p0(i64 4, ptr %9) #7
  %14 = getelementptr inbounds nuw %struct.PJ_LP, ptr %5, i32 0, i32 1
  %15 = load double, ptr %14, align 8, !tbaa !64
  %16 = load ptr, ptr %6, align 8, !tbaa !3
  %17 = getelementptr inbounds nuw %struct.PJconsts, ptr %16, i32 0, i32 61
  %18 = load double, ptr %17, align 8, !tbaa !44
  %19 = fsub double %15, %18
  %20 = fmul double %19, 0x4000804DA09BC3B2
  %21 = getelementptr inbounds nuw %struct.PJ_LP, ptr %5, i32 0, i32 1
  store double %20, ptr %21, align 8, !tbaa !64
  store i32 9, ptr %9, align 4, !tbaa !55
  %22 = load i32, ptr %9, align 4, !tbaa !55
  %23 = sext i32 %22 to i64
  %24 = getelementptr inbounds double, ptr @_ZZL14nzmg_e_forward5PJ_LPP8PJconstsE4tpsi, i64 %23
  store ptr %24, ptr %8, align 8, !tbaa !62
  %25 = load ptr, ptr %8, align 8, !tbaa !62
  %26 = load double, ptr %25, align 8, !tbaa !57
  %27 = getelementptr inbounds nuw %struct.COMPLEX, ptr %7, i32 0, i32 0
  store double %26, ptr %27, align 8, !tbaa !51
  br label %28

28:                                               ; preds = %42, %3
  %29 = load i32, ptr %9, align 4, !tbaa !55
  %30 = icmp ne i32 %29, 0
  br i1 %30, label %31, label %45

31:                                               ; preds = %28
  %32 = load ptr, ptr %8, align 8, !tbaa !62
  %33 = getelementptr inbounds double, ptr %32, i32 -1
  store ptr %33, ptr %8, align 8, !tbaa !62
  %34 = load ptr, ptr %8, align 8, !tbaa !62
  %35 = load double, ptr %34, align 8, !tbaa !57
  %36 = getelementptr inbounds nuw %struct.PJ_LP, ptr %5, i32 0, i32 1
  %37 = load double, ptr %36, align 8, !tbaa !64
  %38 = getelementptr inbounds nuw %struct.COMPLEX, ptr %7, i32 0, i32 0
  %39 = load double, ptr %38, align 8, !tbaa !51
  %40 = call double @llvm.fmuladd.f64(double %37, double %39, double %35)
  %41 = getelementptr inbounds nuw %struct.COMPLEX, ptr %7, i32 0, i32 0
  store double %40, ptr %41, align 8, !tbaa !51
  br label %42

42:                                               ; preds = %31
  %43 = load i32, ptr %9, align 4, !tbaa !55
  %44 = add nsw i32 %43, -1
  store i32 %44, ptr %9, align 4, !tbaa !55
  br label %28, !llvm.loop !66

45:                                               ; preds = %28
  %46 = getelementptr inbounds nuw %struct.PJ_LP, ptr %5, i32 0, i32 1
  %47 = load double, ptr %46, align 8, !tbaa !64
  %48 = getelementptr inbounds nuw %struct.COMPLEX, ptr %7, i32 0, i32 0
  %49 = load double, ptr %48, align 8, !tbaa !51
  %50 = fmul double %49, %47
  store double %50, ptr %48, align 8, !tbaa !51
  %51 = getelementptr inbounds nuw %struct.PJ_LP, ptr %5, i32 0, i32 0
  %52 = load double, ptr %51, align 8, !tbaa !60
  %53 = getelementptr inbounds nuw %struct.COMPLEX, ptr %7, i32 0, i32 1
  store double %52, ptr %53, align 8, !tbaa !54
  call void @llvm.lifetime.start.p0(i64 16, ptr %10) #7
  call void @llvm.memcpy.p0.p0.i64(ptr align 8 %11, ptr align 8 %7, i64 16, i1 false), !tbaa.struct !56
  %54 = getelementptr inbounds nuw { double, double }, ptr %11, i32 0, i32 0
  %55 = load double, ptr %54, align 8
  %56 = getelementptr inbounds nuw { double, double }, ptr %11, i32 0, i32 1
  %57 = load double, ptr %56, align 8
  %58 = call { double, double } @_Z9pj_zpoly17COMPLEXPKS_i(double %55, double %57, ptr noundef @_ZL2bf, i32 noundef 5)
  %59 = getelementptr inbounds nuw { double, double }, ptr %10, i32 0, i32 0
  %60 = extractvalue { double, double } %58, 0
  store double %60, ptr %59, align 8
  %61 = getelementptr inbounds nuw { double, double }, ptr %10, i32 0, i32 1
  %62 = extractvalue { double, double } %58, 1
  store double %62, ptr %61, align 8
  call void @llvm.memcpy.p0.p0.i64(ptr align 8 %7, ptr align 8 %10, i64 16, i1 false), !tbaa.struct !56
  call void @llvm.lifetime.end.p0(i64 16, ptr %10) #7
  %63 = getelementptr inbounds nuw %struct.COMPLEX, ptr %7, i32 0, i32 1
  %64 = load double, ptr %63, align 8, !tbaa !54
  %65 = getelementptr inbounds nuw %struct.PJ_XY, ptr %4, i32 0, i32 0
  store double %64, ptr %65, align 8, !tbaa !53
  %66 = getelementptr inbounds nuw %struct.COMPLEX, ptr %7, i32 0, i32 0
  %67 = load double, ptr %66, align 8, !tbaa !51
  %68 = getelementptr inbounds nuw %struct.PJ_XY, ptr %4, i32 0, i32 1
  store double %67, ptr %68, align 8, !tbaa !49
  call void @llvm.lifetime.end.p0(i64 4, ptr %9) #7
  call void @llvm.lifetime.end.p0(i64 8, ptr %8) #7
  call void @llvm.lifetime.end.p0(i64 16, ptr %7) #7
  %69 = load { double, double }, ptr %4, align 8
  ret { double, double } %69
}