; Function Attrs: mustprogress uwtable
define internal { double, double } @_ZL14nzmg_e_forward5PJ_LPP8PJconsts(double %0, double %1, ptr noundef readonly captures(none) %2) #0 {
  %4 = getelementptr inbounds nuw i8, ptr %2, i64 448
  %5 = load double, ptr %4, align 8, !tbaa !38
  %6 = fsub double %1, %5
  %7 = fmul double %6, 0x4000804DA09BC3B2
  br label %8

8:                                                ; preds = %3, %8
  %.sroa.06.018 = phi double [ -3.400000e-04, %3 ], [ %11, %8 ]
  %.017 = phi i32 [ 9, %3 ], [ %12, %8 ]
  %.01516 = phi ptr [ getelementptr inbounds nuw (i8, ptr @_ZZL14nzmg_e_forward5PJ_LPP8PJconstsE4tpsi, i64 72), %3 ], [ %9, %8 ]
  %9 = getelementptr inbounds i8, ptr %.01516, i64 -8
  %10 = load double, ptr %9, align 8, !tbaa !53
  %11 = tail call double @llvm.fmuladd.f64(double %7, double %.sroa.06.018, double %10)
  %12 = add nsw i32 %.017, -1
  %.not = icmp eq i32 %12, 0
  br i1 %.not, label %13, label %8, !llvm.loop !55

13:                                               ; preds = %8
  %14 = fmul double %7, %11
  %15 = tail call { double, double } @_Z9pj_zpoly17COMPLEXPKS_i(double %14, double %0, ptr noundef nonnull @_ZL2bf, i32 noundef 5)
  %16 = extractvalue { double, double } %15, 0
  %17 = extractvalue { double, double } %15, 1
  %.fca.0.insert = insertvalue { double, double } poison, double %17, 0
  %.fca.1.insert = insertvalue { double, double } %.fca.0.insert, double %16, 1
  ret { double, double } %.fca.1.insert
}